; Function Attrs: mustprogress nounwind uwtable
define internal fastcc noundef zeroext i1 @_ZL13setRetNoUndefRN4llvm8FunctionE(ptr noundef nonnull align 8 dereferenceable(136) %0) unnamed_addr #0 {
  %2 = getelementptr inbounds nuw i8, ptr %0, i64 24
  %3 = load ptr, ptr %2, align 8
  %4 = getelementptr inbounds nuw i8, ptr %3, i64 16
  %5 = load ptr, ptr %4, align 8
  %6 = load ptr, ptr %5, align 8
  %7 = getelementptr inbounds nuw i8, ptr %6, i64 8
  %8 = load i32, ptr %7, align 8
  %9 = and i32 %8, 255
  %10 = icmp eq i32 %9, 7
  br i1 %10, label %14, label %11

11:                                               ; preds = %1
  %12 = tail call noundef zeroext i1 @_ZNK4llvm8Function15hasRetAttributeENS_9Attribute8AttrKindE(ptr noundef nonnull align 8 dereferenceable(136) %0, i32 noundef 38) #7
  br i1 %12, label %14, label %13

13:                                               ; preds = %11
  tail call void @_ZN4llvm8Function10addRetAttrENS_9Attribute8AttrKindE(ptr noundef nonnull align 8 dereferenceable(136) %0, i32 noundef 38) #7
  br label %14

14:                                               ; preds = %1, %11, %13
  %.0 = phi i1 [ true, %13 ], [ false, %11 ], [ false, %1 ]
  ret i1 %.0
}